target datalayout = "e-m:e-p270:32:32-p271:32:32-p272:64:64-i64:64-i128:128-f80:128-n8:16:32:64-S128"
target triple = "x86_64-pc-linux-gnu"

@.str = private unnamed_addr constant [33 x i8] c"../openssl/crypto/bio/bss_file.c\00", align 1
@__func__.BIO_new_file = private unnamed_addr constant [13 x i8] c"BIO_new_file\00", align 1
@.str.1 = private unnamed_addr constant [22 x i8] c"calling fopen(%s, %s)\00", align 1

; Function Attrs: nounwind uwtable
define ptr @BIO_s_file() #0 {
  ret ptr @methods_filep
}

; Function Attrs: nounwind uwtable
define ptr @BIO_new_file(ptr noundef %0, ptr noundef %1) #0 {
  %3 = alloca ptr, align 8
  %4 = alloca ptr, align 8
  %5 = alloca ptr, align 8
  %6 = alloca ptr, align 8
  %7 = alloca ptr, align 8
  %8 = alloca i32, align 4
  %9 = alloca i32, align 4
  store ptr %0, ptr %4, align 8, !tbaa !3
  store ptr %1, ptr %5, align 8, !tbaa !3
  call void @llvm.lifetime.start.p0(i64 8, ptr %6) #6
  call void @llvm.lifetime.start.p0(i64 8, ptr %7) #6
  %10 = load ptr, ptr %4, align 8, !tbaa !3
  %11 = load ptr, ptr %5, align 8, !tbaa !3
  %12 = call ptr @openssl_fopen(ptr noundef %10, ptr noundef %11)
  store ptr %12, ptr %7, align 8, !tbaa !8
  call void @llvm.lifetime.start.p0(i64 4, ptr %8) #6
  store i32 1, ptr %8, align 4, !tbaa !10
  %13 = load ptr, ptr %5, align 8, !tbaa !3
  %14 = call ptr @strchr(ptr noundef %13, i32 noundef 98) #7
  %15 = icmp eq ptr %14, null
  br i1 %15, label %16, label %19

16:                                               ; preds = %2
  %17 = load i32, ptr %8, align 4, !tbaa !10
  %18 = or i32 %17, 16
  store i32 %18, ptr %8, align 4, !tbaa !10
  br label %19

19:                                               ; preds = %16, %2
  %20 = load ptr, ptr %7, align 8, !tbaa !8
  %21 = icmp eq ptr %20, null
  br i1 %21, label %22, label %37

22:                                               ; preds = %19
  call void @ERR_new()
  call void @ERR_set_debug(ptr noundef @.str, i32 noundef 67, ptr noundef @__func__.BIO_new_file)
  %23 = call ptr @__errno_location() #8
  %24 = load i32, ptr %23, align 4, !tbaa !10
  %25 = load ptr, ptr %4, align 8, !tbaa !3
  %26 = load ptr, ptr %5, align 8, !tbaa !3
  call void (i32, i32, ptr, ...) @ERR_set_error(i32 noundef 2, i32 noundef %24, ptr noundef @.str.1, ptr noundef %25, ptr noundef %26)
  %27 = call ptr @__errno_location() #8
  %28 = load i32, ptr %27, align 4, !tbaa !10
  %29 = icmp eq i32 %28, 2
  br i1 %29, label %34, label %30

30:                                               ; preds = %22
  %31 = call ptr @__errno_location() #8
  %32 = load i32, ptr %31, align 4, !tbaa !10
  %33 = icmp eq i32 %32, 6
  br i1 %33, label %34, label %35

34:                                               ; preds = %30, %22
  call void @ERR_new()
  call void @ERR_set_debug(ptr noundef @.str, i32 noundef 75, ptr noundef @__func__.BIO_new_file)
  call void (i32, i32, ptr, ...) @ERR_set_error(i32 noundef 32, i32 noundef 128, ptr noundef null)
  br label %36

35:                                               ; preds = %30
  call void @ERR_new()
  call void @ERR_set_debug(ptr noundef @.str, i32 noundef 77, ptr noundef @__func__.BIO_new_file)
  call void (i32, i32, ptr, ...) @ERR_set_error(i32 noundef 32, i32 noundef 524290, ptr noundef null)
  br label %36

36:                                               ; preds = %35, %34
  store ptr null, ptr %3, align 8
  store i32 1, ptr %9, align 4
  br label %52

37:                                               ; preds = %19
  %38 = call ptr @BIO_s_file()
  %39 = call ptr @BIO_new(ptr noundef %38)
  store ptr %39, ptr %6, align 8, !tbaa !12
  %40 = icmp eq ptr %39, null
  br i1 %40, label %41, label %44

41:                                               ; preds = %37
  %42 = load ptr, ptr %7, align 8, !tbaa !8
  %43 = call i32 @fclose(ptr noundef %42)
  store ptr null, ptr %3, align 8
  store i32 1, ptr %9, align 4
  br label %52

44:                                               ; preds = %37
  %45 = load ptr, ptr %6, align 8, !tbaa !12
  call void @BIO_clear_flags(ptr noundef %45, i32 noundef 0)
  %46 = load ptr, ptr %6, align 8, !tbaa !12
  %47 = load i32, ptr %8, align 4, !tbaa !10
  %48 = sext i32 %47 to i64
  %49 = load ptr, ptr %7, align 8, !tbaa !8
  %50 = call i64 @BIO_ctrl(ptr noundef %46, i32 noundef 106, i64 noundef %48, ptr noundef %49)
  %51 = load ptr, ptr %6, align 8, !tbaa !12
  store ptr %51, ptr %3, align 8
  store i32 1, ptr %9, align 4
  br label %52

52:                                               ; preds = %44, %41, %36
  call void @llvm.lifetime.end.p0(i64 4, ptr %8) #6
  call void @llvm.lifetime.end.p0(i64 8, ptr %7) #6
  call void @llvm.lifetime.end.p0(i64 8, ptr %6) #6
  %53 = load ptr, ptr %3, align 8
  ret ptr %53
}