; Function Attrs: nounwind uwtable
define ptr @BIO_new_file(ptr noundef %0, ptr noundef %1) local_unnamed_addr #0 {
  %3 = tail call ptr @openssl_fopen(ptr noundef %0, ptr noundef %1) #10
  %4 = tail call ptr @strchr(ptr noundef nonnull dereferenceable(1) %1, i32 noundef 98) #11
  %5 = icmp eq ptr %4, null
  %spec.select = select i1 %5, i64 17, i64 1
  %6 = icmp eq ptr %3, null
  br i1 %6, label %7, label %13

7:                                                ; preds = %2
  tail call void @ERR_new() #10
  tail call void @ERR_set_debug(ptr noundef nonnull @.str, i32 noundef 67, ptr noundef nonnull @__func__.BIO_new_file) #10
  %8 = tail call ptr @__errno_location() #12
  %9 = load i32, ptr %8, align 4, !tbaa !3
  tail call void (i32, i32, ptr, ...) @ERR_set_error(i32 noundef 2, i32 noundef %9, ptr noundef nonnull @.str.1, ptr noundef %0, ptr noundef nonnull %1) #10
  %10 = load i32, ptr %8, align 4, !tbaa !3
  switch i32 %10, label %12 [
    i32 2, label %11
    i32 6, label %11
  ]

11:                                               ; preds = %7, %7
  tail call void @ERR_new() #10
  tail call void @ERR_set_debug(ptr noundef nonnull @.str, i32 noundef 75, ptr noundef nonnull @__func__.BIO_new_file) #10
  tail call void (i32, i32, ptr, ...) @ERR_set_error(i32 noundef 32, i32 noundef 128, ptr noundef null) #10
  br label %20

12:                                               ; preds = %7
  tail call void @ERR_new() #10
  tail call void @ERR_set_debug(ptr noundef nonnull @.str, i32 noundef 77, ptr noundef nonnull @__func__.BIO_new_file) #10
  tail call void (i32, i32, ptr, ...) @ERR_set_error(i32 noundef 32, i32 noundef 524290, ptr noundef null) #10
  br label %20

13:                                               ; preds = %2
  %14 = tail call ptr @BIO_new(ptr noundef nonnull @methods_filep) #10
  %15 = icmp eq ptr %14, null
  br i1 %15, label %16, label %18

16:                                               ; preds = %13
  %17 = tail call i32 @fclose(ptr noundef nonnull %3)
  br label %20

18:                                               ; preds = %13
  tail call void @BIO_clear_flags(ptr noundef nonnull %14, i32 noundef 0) #10
  %19 = tail call i64 @BIO_ctrl(ptr noundef nonnull %14, i32 noundef 106, i64 noundef %spec.select, ptr noundef nonnull %3) #10
  br label %20

20:                                               ; preds = %11, %12, %18, %16
  %.013 = phi ptr [ null, %16 ], [ %14, %18 ], [ null, %12 ], [ null, %11 ]
  ret ptr %.013
}